target datalayout = "e-m:e-p270:32:32-p271:32:32-p272:64:64-i64:64-i128:128-f80:128-n8:16:32:64-S128"
target triple = "x86_64-pc-linux-gnu"

%struct.GetBitContext = type { ptr, ptr, i32, i32, i32 }
%struct.H265RawNALUnitHeader = type { i8, i8, i8 }
%struct.H265RawAUD = type { %struct.H265RawNALUnitHeader, i8 }

@.str.112 = private unnamed_addr constant [18 x i8] c"rbsp_stop_one_bit\00", align 1
@.str.113 = private unnamed_addr constant [24 x i8] c"rbsp_alignment_zero_bit\00", align 1
@.str.207 = private unnamed_addr constant [22 x i8] c"Access Unit Delimiter\00", align 1
@.str.597 = private unnamed_addr constant [9 x i8] c"pic_type\00", align 1

; Function Attrs: inlinehint nounwind uwtable
define internal i32 @get_bits_count(ptr noundef %0) #6 {
  %2 = alloca ptr, align 8
  store ptr %0, ptr %2, align 8, !tbaa !196
  %3 = load ptr, ptr %2, align 8, !tbaa !196
  %4 = getelementptr inbounds nuw %struct.GetBitContext, ptr %3, i32 0, i32 2
  %5 = load i32, ptr %4, align 8, !tbaa !202
  ret i32 %5
}

; Function Attrs: nounwind uwtable
define internal i32 @cbs_h265_read_rbsp_trailing_bits(ptr noundef %0, ptr noundef %1) #0 {
  %3 = alloca i32, align 4
  %4 = alloca ptr, align 8
  %5 = alloca ptr, align 8
  %6 = alloca i32, align 4
  %7 = alloca i32, align 4
  %8 = alloca i32, align 4
  %9 = alloca i32, align 4
  %10 = alloca i32, align 4
  %11 = alloca i32, align 4
  store ptr %0, ptr %4, align 8, !tbaa !4
  store ptr %1, ptr %5, align 8, !tbaa !196
  call void @llvm.lifetime.start.p0(i64 4, ptr %6) #11
  br label %12

12:                                               ; preds = %2
  call void @llvm.lifetime.start.p0(i64 4, ptr %7) #11
  store i32 1, ptr %7, align 4, !tbaa !11
  br label %13

13:                                               ; preds = %12
  call void @llvm.lifetime.start.p0(i64 4, ptr %8) #11
  br label %14

14:                                               ; preds = %13
  %15 = load ptr, ptr %4, align 8, !tbaa !4
  %16 = load ptr, ptr %5, align 8, !tbaa !196
  %17 = call i32 @ff_cbs_read_unsigned(ptr noundef %15, ptr noundef %16, i32 noundef 1, ptr noundef @.str.112, ptr noundef null, ptr noundef %8, i32 noundef 1, i32 noundef 1)
  store i32 %17, ptr %6, align 4, !tbaa !11
  %18 = load i32, ptr %6, align 4, !tbaa !11
  %19 = icmp slt i32 %18, 0
  br i1 %19, label %20, label %22

20:                                               ; preds = %14
  %21 = load i32, ptr %6, align 4, !tbaa !11
  store i32 %21, ptr %3, align 4
  store i32 1, ptr %9, align 4
  br label %26

22:                                               ; preds = %14
  br label %23

23:                                               ; preds = %22
  br label %24

24:                                               ; preds = %23
  %25 = load i32, ptr %8, align 4, !tbaa !11
  store i32 %25, ptr %7, align 4, !tbaa !11
  store i32 0, ptr %9, align 4
  br label %26

26:                                               ; preds = %24, %20
  call void @llvm.lifetime.end.p0(i64 4, ptr %8) #11
  %27 = load i32, ptr %9, align 4
  switch i32 %27, label %31 [
    i32 0, label %28
  ]

28:                                               ; preds = %26
  br label %29

29:                                               ; preds = %28
  br label %30

30:                                               ; preds = %29
  store i32 0, ptr %9, align 4
  br label %31

31:                                               ; preds = %30, %26
  call void @llvm.lifetime.end.p0(i64 4, ptr %7) #11
  %32 = load i32, ptr %9, align 4
  switch i32 %32, label %67 [
    i32 0, label %33
  ]

33:                                               ; preds = %31
  br label %34

34:                                               ; preds = %33
  br label %35

35:                                               ; preds = %34
  br label %36

36:                                               ; preds = %65, %35
  %37 = load ptr, ptr %5, align 8, !tbaa !196
  %38 = call i32 @get_bits_count(ptr noundef %37)
  %39 = srem i32 %38, 8
  %40 = icmp ne i32 %39, 0
  br i1 %40, label %41, label %66

41:                                               ; preds = %36
  br label %42

42:                                               ; preds = %41
  call void @llvm.lifetime.start.p0(i64 4, ptr %10) #11
  store i32 0, ptr %10, align 4, !tbaa !11
  br label %43

43:                                               ; preds = %42
  call void @llvm.lifetime.start.p0(i64 4, ptr %11) #11
  br label %44

44:                                               ; preds = %43
  %45 = load ptr, ptr %4, align 8, !tbaa !4
  %46 = load ptr, ptr %5, align 8, !tbaa !196
  %47 = call i32 @ff_cbs_read_unsigned(ptr noundef %45, ptr noundef %46, i32 noundef 1, ptr noundef @.str.113, ptr noundef null, ptr noundef %11, i32 noundef 0, i32 noundef 0)
  store i32 %47, ptr %6, align 4, !tbaa !11
  %48 = load i32, ptr %6, align 4, !tbaa !11
  %49 = icmp slt i32 %48, 0
  br i1 %49, label %50, label %52

50:                                               ; preds = %44
  %51 = load i32, ptr %6, align 4, !tbaa !11
  store i32 %51, ptr %3, align 4
  store i32 1, ptr %9, align 4
  br label %56

52:                                               ; preds = %44
  br label %53

53:                                               ; preds = %52
  br label %54

54:                                               ; preds = %53
  %55 = load i32, ptr %11, align 4, !tbaa !11
  store i32 %55, ptr %10, align 4, !tbaa !11
  store i32 0, ptr %9, align 4
  br label %56

56:                                               ; preds = %54, %50
  call void @llvm.lifetime.end.p0(i64 4, ptr %11) #11
  %57 = load i32, ptr %9, align 4
  switch i32 %57, label %61 [
    i32 0, label %58
  ]

58:                                               ; preds = %56
  br label %59

59:                                               ; preds = %58
  br label %60

60:                                               ; preds = %59
  store i32 0, ptr %9, align 4
  br label %61

61:                                               ; preds = %60, %56
  call void @llvm.lifetime.end.p0(i64 4, ptr %10) #11
  %62 = load i32, ptr %9, align 4
  switch i32 %62, label %67 [
    i32 0, label %63
  ]

63:                                               ; preds = %61
  br label %64

64:                                               ; preds = %63
  br label %65

65:                                               ; preds = %64
  br label %36, !llvm.loop !712

66:                                               ; preds = %36
  store i32 0, ptr %3, align 4
  store i32 1, ptr %9, align 4
  br label %67

67:                                               ; preds = %66, %61, %31
  call void @llvm.lifetime.end.p0(i64 4, ptr %6) #11
  %68 = load i32, ptr %3, align 4
  ret i32 %68
}

; Function Attrs: nounwind uwtable
define internal i32 @cbs_h265_read_aud(ptr noundef %0, ptr noundef %1, ptr noundef %2) #0 {
  %4 = alloca i32, align 4
  %5 = alloca ptr, align 8
  %6 = alloca ptr, align 8
  %7 = alloca ptr, align 8
  %8 = alloca i32, align 4
  %9 = alloca i32, align 4
  %10 = alloca i32, align 4
  store ptr %0, ptr %5, align 8, !tbaa !4
  store ptr %1, ptr %6, align 8, !tbaa !196
  store ptr %2, ptr %7, align 8, !tbaa !649
  call void @llvm.lifetime.start.p0(i64 4, ptr %8) #11
  br label %11

11:                                               ; preds = %3
  %12 = load ptr, ptr %5, align 8, !tbaa !4
  call void @ff_cbs_trace_header(ptr noundef %12, ptr noundef @.str.207)
  br label %13

13:                                               ; preds = %11
  br label %14

14:                                               ; preds = %13
  br label %15

15:                                               ; preds = %14
  %16 = load ptr, ptr %5, align 8, !tbaa !4
  %17 = load ptr, ptr %6, align 8, !tbaa !196
  %18 = load ptr, ptr %7, align 8, !tbaa !649
  %19 = getelementptr inbounds nuw %struct.H265RawAUD, ptr %18, i32 0, i32 0
  %20 = call i32 @cbs_h265_read_nal_unit_header(ptr noundef %16, ptr noundef %17, ptr noundef %19, i32 noundef 35)
  store i32 %20, ptr %8, align 4, !tbaa !11
  %21 = load i32, ptr %8, align 4, !tbaa !11
  %22 = icmp slt i32 %21, 0
  br i1 %22, label %23, label %25

23:                                               ; preds = %15
  %24 = load i32, ptr %8, align 4, !tbaa !11
  store i32 %24, ptr %4, align 4
  store i32 1, ptr %9, align 4
  br label %60

25:                                               ; preds = %15
  br label %26

26:                                               ; preds = %25
  br label %27

27:                                               ; preds = %26
  br label %28

28:                                               ; preds = %27
  call void @llvm.lifetime.start.p0(i64 4, ptr %10) #11
  br label %29

29:                                               ; preds = %28
  %30 = load ptr, ptr %5, align 8, !tbaa !4
  %31 = load ptr, ptr %6, align 8, !tbaa !196
  %32 = call i32 @ff_cbs_read_unsigned(ptr noundef %30, ptr noundef %31, i32 noundef 3, ptr noundef @.str.597, ptr noundef null, ptr noundef %10, i32 noundef 0, i32 noundef 2)
  store i32 %32, ptr %8, align 4, !tbaa !11
  %33 = load i32, ptr %8, align 4, !tbaa !11
  %34 = icmp slt i32 %33, 0
  br i1 %34, label %35, label %37

35:                                               ; preds = %29
  %36 = load i32, ptr %8, align 4, !tbaa !11
  store i32 %36, ptr %4, align 4
  store i32 1, ptr %9, align 4
  br label %44

37:                                               ; preds = %29
  br label %38

38:                                               ; preds = %37
  br label %39

39:                                               ; preds = %38
  %40 = load i32, ptr %10, align 4, !tbaa !11
  %41 = trunc i32 %40 to i8
  %42 = load ptr, ptr %7, align 8, !tbaa !649
  %43 = getelementptr inbounds nuw %struct.H265RawAUD, ptr %42, i32 0, i32 1
  store i8 %41, ptr %43, align 1, !tbaa !651
  store i32 0, ptr %9, align 4
  br label %44

44:                                               ; preds = %39, %35
  call void @llvm.lifetime.end.p0(i64 4, ptr %10) #11
  %45 = load i32, ptr %9, align 4
  switch i32 %45, label %60 [
    i32 0, label %46
  ]

46:                                               ; preds = %44
  br label %47

47:                                               ; preds = %46
  br label %48

48:                                               ; preds = %47
  br label %49

49:                                               ; preds = %48
  %50 = load ptr, ptr %5, align 8, !tbaa !4
  %51 = load ptr, ptr %6, align 8, !tbaa !196
  %52 = call i32 @cbs_h265_read_rbsp_trailing_bits(ptr noundef %50, ptr noundef %51)
  store i32 %52, ptr %8, align 4, !tbaa !11
  %53 = load i32, ptr %8, align 4, !tbaa !11
  %54 = icmp slt i32 %53, 0
  br i1 %54, label %55, label %57

55:                                               ; preds = %49
  %56 = load i32, ptr %8, align 4, !tbaa !11
  store i32 %56, ptr %4, align 4
  store i32 1, ptr %9, align 4
  br label %60

57:                                               ; preds = %49
  br label %58

58:                                               ; preds = %57
  br label %59

59:                                               ; preds = %58
  store i32 0, ptr %4, align 4
  store i32 1, ptr %9, align 4
  br label %60

60:                                               ; preds = %59, %55, %44, %23
  call void @llvm.lifetime.end.p0(i64 4, ptr %8) #11
  %61 = load i32, ptr %4, align 4
  ret i32 %61
}