; Function Attrs: nounwind uwtable
define internal fastcc range(i32 -2147483648, 1) i32 @cbs_h265_read_aud(ptr noundef %0, ptr noundef nonnull %1, ptr noundef writeonly captures(none) %2) unnamed_addr #0 {
  %4 = alloca i32, align 4
  %5 = alloca i32, align 4
  %6 = alloca i32, align 4
  tail call void @ff_cbs_trace_header(ptr noundef %0, ptr noundef nonnull @.str.207) #11
  %7 = tail call fastcc i32 @cbs_h265_read_nal_unit_header(ptr noundef %0, ptr noundef %1, ptr noundef %2, i32 noundef 35)
  %8 = icmp slt i32 %7, 0
  br i1 %8, label %cbs_h265_read_rbsp_trailing_bits.exit, label %9

9:                                                ; preds = %3
  call void @llvm.lifetime.start.p0(i64 4, ptr nonnull %6) #11
  %10 = call i32 @ff_cbs_read_unsigned(ptr noundef %0, ptr noundef nonnull %1, i32 noundef 3, ptr noundef nonnull @.str.597, ptr noundef null, ptr noundef nonnull %6, i32 noundef 0, i32 noundef 2) #11
  %11 = icmp sgt i32 %10, -1
  br i1 %11, label %12, label %.critedge

12:                                               ; preds = %9
  %13 = load i32, ptr %6, align 4, !tbaa !63
  %14 = trunc i32 %13 to i8
  %15 = getelementptr inbounds nuw i8, ptr %2, i64 3
  store i8 %14, ptr %15, align 1, !tbaa !434
  call void @llvm.lifetime.end.p0(i64 4, ptr nonnull %6) #11
  call void @llvm.lifetime.start.p0(i64 4, ptr nonnull %4) #11
  %16 = call i32 @ff_cbs_read_unsigned(ptr noundef %0, ptr noundef nonnull %1, i32 noundef 1, ptr noundef nonnull @.str.112, ptr noundef null, ptr noundef nonnull %4, i32 noundef 1, i32 noundef 1) #11
  %17 = icmp sgt i32 %16, -1
  call void @llvm.lifetime.end.p0(i64 4, ptr nonnull %4) #11
  br i1 %17, label %.preheader.i, label %cbs_h265_read_rbsp_trailing_bits.exit

.preheader.i:                                     ; preds = %12
  %18 = getelementptr i8, ptr %1, i64 16
  br label %19

19:                                               ; preds = %21, %.preheader.i
  %.val.i = load i32, ptr %18, align 8, !tbaa !60
  %20 = and i32 %.val.i, 7
  %.not.i = icmp eq i32 %20, 0
  br i1 %.not.i, label %cbs_h265_read_rbsp_trailing_bits.exit, label %21

21:                                               ; preds = %19
  call void @llvm.lifetime.start.p0(i64 4, ptr nonnull %5) #11
  %22 = call i32 @ff_cbs_read_unsigned(ptr noundef %0, ptr noundef nonnull %1, i32 noundef 1, ptr noundef nonnull @.str.113, ptr noundef null, ptr noundef nonnull %5, i32 noundef 0, i32 noundef 0) #11
  %23 = icmp sgt i32 %22, -1
  call void @llvm.lifetime.end.p0(i64 4, ptr nonnull %5) #11
  br i1 %23, label %19, label %cbs_h265_read_rbsp_trailing_bits.exit, !llvm.loop !337

.critedge:                                        ; preds = %9
  call void @llvm.lifetime.end.p0(i64 4, ptr nonnull %6) #11
  br label %cbs_h265_read_rbsp_trailing_bits.exit

cbs_h265_read_rbsp_trailing_bits.exit:            ; preds = %19, %21, %12, %.critedge, %3
  %.016 = phi i32 [ %7, %3 ], [ %10, %.critedge ], [ %16, %12 ], [ %22, %21 ], [ 0, %19 ]
  ret i32 %.016
}